; ModuleID = '34/3333.c'
source_filename = "34/3333.c"
target datalayout = "e-m:e-p270:32:32-p271:32:32-p272:64:64-i64:64-f80:128-n8:16:32:64-S128"
target triple = "x86_64-pc-linux-gnu"

@.str = private unnamed_addr constant [3 x i8] c"%d\00", align 1
@n = common dso_local global i32 0, align 4
@.str.1 = private unnamed_addr constant [4 x i8] c"End\00", align 1
@.str.2 = private unnamed_addr constant [9 x i8] c"%d/2=%d\0A\00", align 1
@.str.3 = private unnamed_addr constant [11 x i8] c"%d*3+1=%d\0A\00", align 1

; Function Attrs: noinline nounwind uwtable
define dso_local void @main() #0 {
  %1 = call i32 (i8*, ...) @__isoc99_scanf(i8* getelementptr inbounds ([3 x i8], [3 x i8]* @.str, i64 0, i64 0), i32* @n)
  br label %2

2:                                                ; preds = %15, %0
  %3 = load i32, i32* @n, align 4
  %4 = icmp ne i32 %3, 1
  br i1 %4, label %5, label %16

5:                                                ; preds = %2
  %6 = load i32, i32* @n, align 4
  %7 = srem i32 %6, 2
  %8 = icmp eq i32 %7, 0
  br i1 %8, label %9, label %12

9:                                                ; preds = %5
  %10 = load i32, i32* @n, align 4
  %11 = call i32 @s(i32 %10)
  br label %15

12:                                               ; preds = %5
  %13 = load i32, i32* @n, align 4
  %14 = call i32 @b(i32 %13)
  br label %15

15:                                               ; preds = %12, %9
  br label %2

16:                                               ; preds = %2
  %17 = call i32 (i8*, ...) @printf(i8* getelementptr inbounds ([4 x i8], [4 x i8]* @.str.1, i64 0, i64 0))
  ret void
}

declare dso_local i32 @__isoc99_scanf(i8*, ...) #1

; Function Attrs: noinline nounwind uwtable
define dso_local i32 @s(i32 %0) #0 {
  %2 = alloca i32, align 4
  store i32 %0, i32* %2, align 4
  %3 = load i32, i32* @n, align 4
  %4 = sdiv i32 %3, 2
  store i32 %4, i32* @n, align 4
  %5 = load i32, i32* @n, align 4
  %6 = mul nsw i32 2, %5
  %7 = load i32, i32* @n, align 4
  %8 = call i32 (i8*, ...) @printf(i8* getelementptr inbounds ([9 x i8], [9 x i8]* @.str.2, i64 0, i64 0), i32 %6, i32 %7)
  %9 = load i32, i32* @n, align 4
  ret i32 %9
}

; Function Attrs: noinline nounwind uwtable
define dso_local i32 @b(i32 %0) #0 {
  %2 = alloca i32, align 4
  store i32 %0, i32* %2, align 4
  %3 = load i32, i32* @n, align 4
  %4 = mul nsw i32 %3, 3
  %5 = add nsw i32 %4, 1
  store i32 %5, i32* @n, align 4
  %6 = load i32, i32* @n, align 4
  %7 = sub nsw i32 %6, 1
  %8 = sdiv i32 %7, 3
  %9 = load i32, i32* @n, align 4
  %10 = call i32 (i8*, ...) @printf(i8* getelementptr inbounds ([11 x i8], [11 x i8]* @.str.3, i64 0, i64 0), i32 %8, i32 %9)
  %11 = load i32, i32* @n, align 4
  ret i32 %11
}

declare dso_local i32 @printf(i8*, ...) #1


!llvm.module.flags = !{!0}
!llvm.ident = !{!1}

!0 = !{i32 1, !"wchar_size", i32 4}
!1 = !{!"clang version 10.0.0-4ubuntu1 "}
